target datalayout = "e-m:e-p270:32:32-p271:32:32-p272:64:64-i64:64-i128:128-f80:128-n8:16:32:64-S128"
target triple = "x86_64-pc-linux-gnu"

%"class.gmx::AnalysisDataProxy" = type <{ %"class.gmx::AbstractAnalysisData", %"class.gmx::IAnalysisDataModule", ptr, i32, i32, i8, [7 x i8] }>
%"class.gmx::AbstractAnalysisData" = type { ptr, %"class.std::unique_ptr" }
%"class.std::unique_ptr" = type { %"struct.std::__uniq_ptr_data" }
%"struct.std::__uniq_ptr_data" = type { %"class.std::__uniq_ptr_impl" }
%"class.std::__uniq_ptr_impl" = type { %"class.std::tuple" }
%"class.std::tuple" = type { %"struct.std::_Tuple_impl" }
%"struct.std::_Tuple_impl" = type { %"struct.std::_Head_base.4" }
%"struct.std::_Head_base.4" = type { ptr }
%"class.gmx::IAnalysisDataModule" = type { ptr }
%class.anon = type { i8 }
%class.anon.5 = type { i8 }

@.str = private unnamed_addr constant [16 x i8] c"data != nullptr\00", align 1
@.str.1 = private unnamed_addr constant [29 x i8] c"Source data must not be NULL\00", align 1
@"__PRETTY_FUNCTION__._ZZN3gmx17AnalysisDataProxyC1EiiPNS_20AbstractAnalysisDataEENK3$_0clEv" = private unnamed_addr constant [120 x i8] c"auto gmx::AnalysisDataProxy::AnalysisDataProxy(int, int, AbstractAnalysisData *)::(anonymous class)::operator()() const\00", align 1
@.str.2 = private unnamed_addr constant [132 x i8] c"generated/home/dtcxzyw/WorkSpace/Projects/compilers/llvm-opt-benchmark/bench/gromacs/gromacs/src/gromacs/analysisdata/dataproxy.cpp\00", align 1
@.str.3 = private unnamed_addr constant [35 x i8] c"firstColumn >= 0 && columnSpan > 0\00", align 1
@.str.4 = private unnamed_addr constant [21 x i8] c"Invalid proxy column\00", align 1

; Function Attrs: mustprogress nounwind uwtable
define linkonce_odr void @_ZN3gmx19IAnalysisDataModuleD2Ev(ptr noundef nonnull align 8 dereferenceable(8) %0) unnamed_addr #0 comdat align 2 {
  %2 = alloca ptr, align 8
  store ptr %0, ptr %2, align 8
  ret void
}

; Function Attrs: mustprogress uwtable
define internal void @"_ZZN3gmx17AnalysisDataProxyC1EiiPNS_20AbstractAnalysisDataEENK3$_1clEv"(ptr noundef nonnull align 1 dereferenceable(1) %0) #1 align 2 {
  %2 = alloca ptr, align 8
  store ptr %0, ptr %2, align 8
  call void @_ZN3gmx8internal13assertHandlerEPKcS2_S2_S2_i(ptr noundef @.str.3, ptr noundef @.str.4, ptr noundef @"__PRETTY_FUNCTION__._ZZN3gmx17AnalysisDataProxyC1EiiPNS_20AbstractAnalysisDataEENK3$_0clEv", ptr noundef @.str.2, i32 noundef 56) #12
  unreachable
}

; Function Attrs: mustprogress uwtable
define internal void @"_ZZN3gmx17AnalysisDataProxyC1EiiPNS_20AbstractAnalysisDataEENK3$_0clEv"(ptr noundef nonnull align 1 dereferenceable(1) %0) #1 align 2 {
  %2 = alloca ptr, align 8
  store ptr %0, ptr %2, align 8
  call void @_ZN3gmx8internal13assertHandlerEPKcS2_S2_S2_i(ptr noundef @.str, ptr noundef @.str.1, ptr noundef @"__PRETTY_FUNCTION__._ZZN3gmx17AnalysisDataProxyC1EiiPNS_20AbstractAnalysisDataEENK3$_0clEv", ptr noundef @.str.2, i32 noundef 55) #12
  unreachable
}

; Function Attrs: mustprogress nounwind uwtable
define linkonce_odr void @_ZN3gmx19IAnalysisDataModuleC2Ev(ptr noundef nonnull align 8 dereferenceable(8) %0) unnamed_addr #0 comdat align 2 {
  %2 = alloca ptr, align 8
  store ptr %0, ptr %2, align 8
  %3 = load ptr, ptr %2, align 8
  store ptr getelementptr inbounds inrange(-16, 80) ({ [12 x ptr] }, ptr @_ZTVN3gmx19IAnalysisDataModuleE, i32 0, i32 0, i32 2), ptr %3, align 8
  ret void
}

; Function Attrs: mustprogress uwtable
define void @_ZN3gmx17AnalysisDataProxyC2EiiPNS_20AbstractAnalysisDataE(ptr noundef nonnull align 8 dereferenceable(41) %0, i32 noundef %1, i32 noundef %2, ptr noundef %3) unnamed_addr #1 align 2 personality ptr @__gxx_personality_v0 {
  %5 = alloca ptr, align 8
  %6 = alloca i32, align 4
  %7 = alloca i32, align 4
  %8 = alloca ptr, align 8
  %9 = alloca %class.anon, align 1
  %10 = alloca ptr, align 8
  %11 = alloca i32, align 4
  %12 = alloca %class.anon.5, align 1
  store ptr %0, ptr %5, align 8
  store i32 %1, ptr %6, align 4
  store i32 %2, ptr %7, align 4
  store ptr %3, ptr %8, align 8
  %13 = load ptr, ptr %5, align 8
  call void @_ZN3gmx20AbstractAnalysisDataC2Ev(ptr noundef nonnull align 8 dereferenceable(16) %13)
  %14 = getelementptr inbounds i8, ptr %13, i64 16
  call void @_ZN3gmx19IAnalysisDataModuleC2Ev(ptr noundef nonnull align 8 dereferenceable(8) %14) #10
  store ptr getelementptr inbounds inrange(-16, 104) ({ [15 x ptr], [12 x ptr] }, ptr @_ZTVN3gmx17AnalysisDataProxyE, i32 0, i32 0, i32 2), ptr %13, align 8
  %15 = getelementptr inbounds i8, ptr %13, i64 16
  store ptr getelementptr inbounds inrange(-16, 80) ({ [15 x ptr], [12 x ptr] }, ptr @_ZTVN3gmx17AnalysisDataProxyE, i32 0, i32 1, i32 2), ptr %15, align 8
  %16 = getelementptr inbounds %"class.gmx::AnalysisDataProxy", ptr %13, i32 0, i32 2
  %17 = load ptr, ptr %8, align 8
  store ptr %17, ptr %16, align 8
  %18 = getelementptr inbounds %"class.gmx::AnalysisDataProxy", ptr %13, i32 0, i32 3
  %19 = load i32, ptr %6, align 4
  store i32 %19, ptr %18, align 8
  %20 = getelementptr inbounds %"class.gmx::AnalysisDataProxy", ptr %13, i32 0, i32 4
  %21 = load i32, ptr %7, align 4
  store i32 %21, ptr %20, align 4
  %22 = getelementptr inbounds %"class.gmx::AnalysisDataProxy", ptr %13, i32 0, i32 5
  store i8 0, ptr %22, align 8
  %23 = load ptr, ptr %8, align 8
  %24 = icmp ne ptr %23, null
  br i1 %24, label %25, label %26

25:                                               ; preds = %4
  br label %28

26:                                               ; preds = %4
  invoke void @"_ZZN3gmx17AnalysisDataProxyC1EiiPNS_20AbstractAnalysisDataEENK3$_0clEv"(ptr noundef nonnull align 1 dereferenceable(1) %9)
          to label %27 unwind label %43

27:                                               ; preds = %26
  br label %28

28:                                               ; preds = %27, %25
  %29 = load i32, ptr %6, align 4
  %30 = icmp sge i32 %29, 0
  br i1 %30, label %31, label %35

31:                                               ; preds = %28
  %32 = load i32, ptr %7, align 4
  %33 = icmp sgt i32 %32, 0
  br i1 %33, label %34, label %35

34:                                               ; preds = %31
  br label %37

35:                                               ; preds = %31, %28
  invoke void @"_ZZN3gmx17AnalysisDataProxyC1EiiPNS_20AbstractAnalysisDataEENK3$_1clEv"(ptr noundef nonnull align 1 dereferenceable(1) %12)
          to label %36 unwind label %43

36:                                               ; preds = %35
  br label %37

37:                                               ; preds = %36, %34
  %38 = getelementptr inbounds %"class.gmx::AnalysisDataProxy", ptr %13, i32 0, i32 2
  %39 = load ptr, ptr %38, align 8
  %40 = invoke noundef zeroext i1 @_ZNK3gmx20AbstractAnalysisData12isMultipointEv(ptr noundef nonnull align 8 dereferenceable(16) %39)
          to label %41 unwind label %43

41:                                               ; preds = %37
  invoke void @_ZN3gmx20AbstractAnalysisData13setMultipointEb(ptr noundef nonnull align 8 dereferenceable(16) %13, i1 noundef zeroext %40)
          to label %42 unwind label %43

42:                                               ; preds = %41
  ret void

43:                                               ; preds = %41, %37, %35, %26
  %44 = landingpad { ptr, i32 }
          cleanup
  %45 = extractvalue { ptr, i32 } %44, 0
  store ptr %45, ptr %10, align 8
  %46 = extractvalue { ptr, i32 } %44, 1
  store i32 %46, ptr %11, align 4
  %47 = getelementptr inbounds i8, ptr %13, i64 16
  call void @_ZN3gmx19IAnalysisDataModuleD2Ev(ptr noundef nonnull align 8 dereferenceable(8) %47) #10
  call void @_ZN3gmx20AbstractAnalysisDataD2Ev(ptr noundef nonnull align 8 dereferenceable(16) %13) #10
  br label %48

48:                                               ; preds = %43
  %49 = load ptr, ptr %10, align 8
  %50 = load i32, ptr %11, align 4
  %51 = insertvalue { ptr, i32 } poison, ptr %49, 0
  %52 = insertvalue { ptr, i32 } %51, i32 %50, 1
  resume { ptr, i32 } %52
}