; Function Attrs: mustprogress uwtable
define void @_ZN3gmx17AnalysisDataProxyC2EiiPNS_20AbstractAnalysisDataE(ptr noundef nonnull align 8 dereferenceable(41) %0, i32 noundef %1, i32 noundef %2, ptr noundef %3) unnamed_addr #1 align 2 personality ptr @__gxx_personality_v0 {
  tail call void @_ZN3gmx20AbstractAnalysisDataC2Ev(ptr noundef nonnull align 8 dereferenceable(16) %0)
  %5 = getelementptr inbounds i8, ptr %0, i64 16
  store ptr getelementptr inbounds inrange(-16, 104) ({ [15 x ptr], [12 x ptr] }, ptr @_ZTVN3gmx17AnalysisDataProxyE, i64 0, i32 0, i64 2), ptr %0, align 8
  store ptr getelementptr inbounds inrange(-16, 80) ({ [15 x ptr], [12 x ptr] }, ptr @_ZTVN3gmx17AnalysisDataProxyE, i64 0, i32 1, i64 2), ptr %5, align 8
  %6 = getelementptr inbounds i8, ptr %0, i64 24
  store ptr %3, ptr %6, align 8
  %7 = getelementptr inbounds i8, ptr %0, i64 32
  store i32 %1, ptr %7, align 8
  %8 = getelementptr inbounds i8, ptr %0, i64 36
  store i32 %2, ptr %8, align 4
  %9 = getelementptr inbounds i8, ptr %0, i64 40
  store i8 0, ptr %9, align 8
  %.not = icmp eq ptr %3, null
  br i1 %.not, label %.invoke, label %10

10:                                               ; preds = %4
  %11 = icmp sgt i32 %1, -1
  %12 = icmp sgt i32 %2, 0
  %or.cond = and i1 %11, %12
  br i1 %or.cond, label %16, label %.invoke

.invoke:                                          ; preds = %10, %4
  %13 = phi ptr [ @.str, %4 ], [ @.str.3, %10 ]
  %14 = phi ptr [ @.str.1, %4 ], [ @.str.4, %10 ]
  %15 = phi i32 [ 55, %4 ], [ 56, %10 ]
  invoke void @_ZN3gmx8internal13assertHandlerEPKcS2_S2_S2_i(ptr noundef nonnull %13, ptr noundef nonnull %14, ptr noundef nonnull @"__PRETTY_FUNCTION__._ZZN3gmx17AnalysisDataProxyC1EiiPNS_20AbstractAnalysisDataEENK3$_0clEv", ptr noundef nonnull @.str.2, i32 noundef %15) #12
          to label %.cont unwind label %20

.cont:                                            ; preds = %.invoke
  unreachable

16:                                               ; preds = %10
  %17 = invoke noundef zeroext i1 @_ZNK3gmx20AbstractAnalysisData12isMultipointEv(ptr noundef nonnull align 8 dereferenceable(16) %3)
          to label %18 unwind label %20

18:                                               ; preds = %16
  invoke void @_ZN3gmx20AbstractAnalysisData13setMultipointEb(ptr noundef nonnull align 8 dereferenceable(16) %0, i1 noundef zeroext %17)
          to label %19 unwind label %20

19:                                               ; preds = %18
  ret void

20:                                               ; preds = %.invoke, %18, %16
  %21 = landingpad { ptr, i32 }
          cleanup
  tail call void @_ZN3gmx20AbstractAnalysisDataD2Ev(ptr noundef nonnull align 8 dereferenceable(16) %0) #10
  resume { ptr, i32 } %21
}